target datalayout = "e-m:e-p270:32:32-p271:32:32-p272:64:64-i64:64-i128:128-f80:128-n8:16:32:64-S128"
target triple = "x86_64-pc-linux-gnu"

%struct.qlog_st = type { %struct.qlog_trace_info_st, ptr, [1 x i64], i32, ptr, ptr, ptr, %struct.OSSL_TIME, %struct.OSSL_TIME, %struct.ossl_json_enc_st, i32, i32 }
%struct.qlog_trace_info_st = type { %struct.quic_conn_id_st, ptr, ptr, ptr, i32, ptr, ptr, i64, ptr }
%struct.quic_conn_id_st = type { i8, [20 x i8] }
%struct.OSSL_TIME = type { i64 }
%struct.ossl_json_enc_st = type { i32, i8, i8, i8, ptr, i8, [16 x i8], %struct.json_write_buf, i64, i64 }
%struct.json_write_buf = type { ptr, ptr, i64, i64 }

; Function Attrs: nounwind uwtable
define void @ossl_qlog_array_begin(ptr noundef %0, ptr noundef %1) #0 {
  %3 = alloca ptr, align 8
  %4 = alloca ptr, align 8
  store ptr %0, ptr %3, align 8, !tbaa !8
  store ptr %1, ptr %4, align 8, !tbaa !39
  %5 = load ptr, ptr %4, align 8, !tbaa !39
  %6 = icmp ne ptr %5, null
  br i1 %6, label %7, label %11

7:                                                ; preds = %2
  %8 = load ptr, ptr %3, align 8, !tbaa !8
  %9 = getelementptr inbounds nuw %struct.qlog_st, ptr %8, i32 0, i32 9
  %10 = load ptr, ptr %4, align 8, !tbaa !39
  call void @ossl_json_key(ptr noundef %9, ptr noundef %10)
  br label %11

11:                                               ; preds = %7, %2
  %12 = load ptr, ptr %3, align 8, !tbaa !8
  %13 = getelementptr inbounds nuw %struct.qlog_st, ptr %12, i32 0, i32 9
  call void @ossl_json_array_begin(ptr noundef %13)
  ret void
}