; Function Attrs: nounwind uwtable
define void @ossl_qlog_array_begin(ptr noundef %0, ptr noundef %1) local_unnamed_addr #0 {
  %.not = icmp eq ptr %1, null
  br i1 %.not, label %5, label %3

3:                                                ; preds = %2
  %4 = getelementptr inbounds nuw i8, ptr %0, i64 152
  tail call void @ossl_json_key(ptr noundef nonnull %4, ptr noundef nonnull %1) #11
  br label %5

5:                                                ; preds = %3, %2
  %6 = getelementptr inbounds nuw i8, ptr %0, i64 152
  tail call void @ossl_json_array_begin(ptr noundef nonnull %6) #11
  ret void
}